; Function Attrs: mustprogress uwtable
define dso_local void @_ZN4Luau7CodeGen21translateInstJumpBackERNS0_9IrBuilderEPKji(ptr noundef nonnull align 8 dereferenceable(752) %0, ptr noundef readonly captures(none) %1, i32 noundef %2) local_unnamed_addr #0 {
  %4 = tail call i32 @_ZN4Luau7CodeGen9IrBuilder9constUintEj(ptr noundef nonnull align 8 dereferenceable(752) %0, i32 noundef %2)
  %5 = tail call i32 @_ZN4Luau7CodeGen9IrBuilder4instENS0_5IrCmdENS0_4IrOpE(ptr noundef nonnull align 8 dereferenceable(752) %0, i8 noundef zeroext 93, i32 %4)
  %6 = add nsw i32 %2, 1
  %7 = load i32, ptr %1, align 4, !tbaa !4
  %8 = ashr i32 %7, 16
  %9 = add nsw i32 %6, %8
  %10 = tail call i32 @_ZN4Luau7CodeGen9IrBuilder11blockAtInstEj(ptr noundef nonnull align 8 dereferenceable(752) %0, i32 noundef %9)
  %11 = tail call i32 @_ZN4Luau7CodeGen9IrBuilder4instENS0_5IrCmdENS0_4IrOpE(ptr noundef nonnull align 8 dereferenceable(752) %0, i8 noundef zeroext 46, i32 %10)
  ret void
}